; Function Attrs: nounwind uwtable
define range(i32 0, 2) i32 @cuddTreeSifting(ptr noundef %0, i32 noundef %1) local_unnamed_addr #0 {
  %3 = getelementptr inbounds nuw i8, ptr %0, i64 520
  %4 = load ptr, ptr %3, align 8, !tbaa !26
  %5 = icmp eq ptr %4, null
  br i1 %5, label %6, label %14

6:                                                ; preds = %2
  %7 = getelementptr inbounds nuw i8, ptr %0, i64 136
  %8 = load i32, ptr %7, align 8, !tbaa !3
  %9 = tail call ptr @Mtr_InitGroupTree(i32 noundef 0, i32 noundef %8) #11
  store ptr %9, ptr %3, align 8, !tbaa !26
  %10 = getelementptr inbounds nuw i8, ptr %0, i64 328
  %11 = load ptr, ptr %10, align 8, !tbaa !27
  %12 = load i32, ptr %11, align 4, !tbaa !25
  %13 = getelementptr inbounds nuw i8, ptr %9, i64 12
  store i32 %12, ptr %13, align 4, !tbaa !28
  br label %14

14:                                               ; preds = %6, %2
  %15 = phi ptr [ %9, %6 ], [ %4, %2 ]
  %16 = getelementptr inbounds nuw i8, ptr %0, i64 136
  %17 = load i32, ptr %16, align 8, !tbaa !3
  %18 = icmp sgt i32 %17, 0
  br i1 %18, label %.lr.ph, label %._crit_edge

.lr.ph:                                           ; preds = %14
  %19 = getelementptr inbounds nuw i8, ptr %0, i64 152
  %20 = load ptr, ptr %19, align 8, !tbaa !31
  %wide.trip.count = zext nneg i32 %17 to i64
  br label %21

21:                                               ; preds = %.lr.ph, %21
  %indvars.iv = phi i64 [ 0, %.lr.ph ], [ %indvars.iv.next, %21 ]
  %22 = getelementptr inbounds nuw %struct.DdSubtable, ptr %20, i64 %indvars.iv, i32 6
  %23 = trunc nuw nsw i64 %indvars.iv to i32
  store i32 %23, ptr %22, align 4, !tbaa !32
  %indvars.iv.next = add nuw nsw i64 %indvars.iv, 1
  %exitcond.not = icmp eq i64 %indvars.iv.next, %wide.trip.count
  br i1 %exitcond.not, label %._crit_edge, label %21, !llvm.loop !33

._crit_edge:                                      ; preds = %21, %14
  %24 = tail call fastcc i32 @ddTreeSiftingAux(ptr noundef nonnull %0, ptr noundef %15, i32 noundef %1)
  br i1 %5, label %25, label %26

25:                                               ; preds = %._crit_edge
  tail call void @Cudd_FreeTree(ptr noundef nonnull %0) #11
  br label %26

26:                                               ; preds = %25, %._crit_edge
  ret i32 %24
}